target datalayout = "e-m:e-p270:32:32-p271:32:32-p272:64:64-i64:64-i128:128-f80:128-n8:16:32:64-S128"
target triple = "x86_64-pc-linux-gnu"

%struct.RString = type { %struct.RBasic, i64, %union.anon.13 }
%struct.RBasic = type { i64, i64 }
%union.anon.13 = type { %struct.anon.14 }
%struct.anon.14 = type { ptr, %union.anon.15 }
%union.anon.15 = type { i64 }
%struct.recvfrom_arg = type { ptr, i32, i32, i64, i64, i32, %union.union_sockaddr }
%union.union_sockaddr = type { %struct.sockaddr_storage, [1920 x i8] }
%struct.sockaddr_storage = type { i16, [118 x i8], i64 }
%union.__SOCKADDR_ARG = type { ptr }
%struct.anon.16 = type { [1 x i8] }

; Function Attrs: inlinehint nounwind sspstrong willreturn memory(read) uwtable
define internal i64 @RB_FL_TEST_RAW(i64 noundef %0, i64 noundef %1) #7 {
  %3 = alloca i64, align 8
  %4 = alloca i64, align 8
  store i64 %0, ptr %3, align 8, !tbaa !13
  store i64 %1, ptr %4, align 8, !tbaa !13
  %5 = load i64, ptr %3, align 8, !tbaa !13
  %6 = inttoptr i64 %5 to ptr
  %7 = getelementptr inbounds nuw %struct.RBasic, ptr %6, i32 0, i32 0
  %8 = load i64, ptr %7, align 8, !tbaa !83
  %9 = load i64, ptr %4, align 8, !tbaa !13
  %10 = and i64 %8, %9
  ret i64 %10
}

; Function Attrs: inlinehint nounwind sspstrong willreturn memory(read) uwtable
define internal i64 @RSTRING_LEN(i64 noundef %0) #7 {
  %2 = alloca i64, align 8
  store i64 %0, ptr %2, align 8, !tbaa !13
  %3 = load i64, ptr %2, align 8, !tbaa !13
  %4 = inttoptr i64 %3 to ptr
  %5 = getelementptr inbounds nuw %struct.RString, ptr %4, i32 0, i32 1
  %6 = load i64, ptr %5, align 8, !tbaa !36
  ret i64 %6
}

; Function Attrs: inlinehint nounwind sspstrong willreturn memory(read) uwtable
define internal zeroext i1 @RB_FL_ANY_RAW(i64 noundef %0, i64 noundef %1) #7 {
  %3 = alloca i64, align 8
  %4 = alloca i64, align 8
  store i64 %0, ptr %3, align 8, !tbaa !13
  store i64 %1, ptr %4, align 8, !tbaa !13
  %5 = load i64, ptr %3, align 8, !tbaa !13
  %6 = load i64, ptr %4, align 8, !tbaa !13
  %7 = call i64 @RB_FL_TEST_RAW(i64 noundef %5, i64 noundef %6) #24
  %8 = icmp ne i64 %7, 0
  ret i1 %8
}

; Function Attrs: inlinehint nounwind sspstrong willreturn memory(read, argmem: readwrite) uwtable
define internal void @rbimpl_rstring_getmem(ptr dead_on_unwind noalias writable sret(%struct.RString) align 8 %0, i64 noundef %1) #14 {
  %3 = alloca i64, align 8
  store i64 %1, ptr %3, align 8, !tbaa !13
  %4 = load i64, ptr %3, align 8, !tbaa !13
  %5 = call zeroext i1 @RB_FL_ANY_RAW(i64 noundef %4, i64 noundef 8192) #24
  br i1 %5, label %6, label %9

6:                                                ; preds = %2
  %7 = load i64, ptr %3, align 8, !tbaa !13
  %8 = inttoptr i64 %7 to ptr
  call void @llvm.memcpy.p0.p0.i64(ptr align 8 %0, ptr align 8 %8, i64 40, i1 false), !tbaa.struct !82
  br label %20

9:                                                ; preds = %2
  %10 = load i64, ptr %3, align 8, !tbaa !13
  %11 = call i64 @RSTRING_LEN(i64 noundef %10) #24
  %12 = getelementptr inbounds nuw %struct.RString, ptr %0, i32 0, i32 1
  store i64 %11, ptr %12, align 8, !tbaa !36
  %13 = load i64, ptr %3, align 8, !tbaa !13
  %14 = inttoptr i64 %13 to ptr
  %15 = getelementptr inbounds nuw %struct.RString, ptr %14, i32 0, i32 2
  %16 = getelementptr inbounds nuw %struct.anon.16, ptr %15, i32 0, i32 0
  %17 = getelementptr inbounds [1 x i8], ptr %16, i64 0, i64 0
  %18 = getelementptr inbounds nuw %struct.RString, ptr %0, i32 0, i32 2
  %19 = getelementptr inbounds nuw %struct.anon.14, ptr %18, i32 0, i32 0
  store ptr %17, ptr %19, align 8, !tbaa !34
  br label %20

20:                                               ; preds = %9, %6
  ret void
}

; Function Attrs: inlinehint nounwind sspstrong uwtable
define internal ptr @RSTRING_PTR(i64 noundef %0) #6 {
  %2 = alloca i64, align 8
  %3 = alloca ptr, align 8
  %4 = alloca %struct.RString, align 8
  store i64 %0, ptr %2, align 8, !tbaa !13
  call void @llvm.lifetime.start.p0(i64 8, ptr %3) #21
  %5 = load i64, ptr %2, align 8, !tbaa !13
  call void @rbimpl_rstring_getmem(ptr dead_on_unwind writable sret(%struct.RString) align 8 %4, i64 noundef %5) #25
  %6 = getelementptr inbounds nuw %struct.RString, ptr %4, i32 0, i32 2
  %7 = getelementptr inbounds nuw %struct.anon.14, ptr %6, i32 0, i32 0
  %8 = load ptr, ptr %7, align 8, !tbaa !34
  store ptr %8, ptr %3, align 8, !tbaa !6
  %9 = load ptr, ptr %3, align 8, !tbaa !6
  call void @llvm.lifetime.end.p0(i64 8, ptr %3) #21
  ret ptr %9
}

; Function Attrs: nounwind sspstrong uwtable
define internal i64 @recvfrom_blocking(ptr noundef %0) #0 {
  %2 = alloca ptr, align 8
  %3 = alloca ptr, align 8
  %4 = alloca i32, align 4
  %5 = alloca i64, align 8
  %6 = alloca %union.__SOCKADDR_ARG, align 8
  store ptr %0, ptr %2, align 8, !tbaa !25
  call void @llvm.lifetime.start.p0(i64 8, ptr %3) #21
  %7 = load ptr, ptr %2, align 8, !tbaa !25
  store ptr %7, ptr %3, align 8, !tbaa !60
  call void @llvm.lifetime.start.p0(i64 4, ptr %4) #21
  %8 = load ptr, ptr %3, align 8, !tbaa !60
  %9 = getelementptr inbounds nuw %struct.recvfrom_arg, ptr %8, i32 0, i32 5
  %10 = load i32, ptr %9, align 8, !tbaa !47
  store i32 %10, ptr %4, align 4, !tbaa !11
  call void @llvm.lifetime.start.p0(i64 8, ptr %5) #21
  %11 = load ptr, ptr %3, align 8, !tbaa !60
  %12 = getelementptr inbounds nuw %struct.recvfrom_arg, ptr %11, i32 0, i32 1
  %13 = load i32, ptr %12, align 8, !tbaa !46
  %14 = load ptr, ptr %3, align 8, !tbaa !60
  %15 = getelementptr inbounds nuw %struct.recvfrom_arg, ptr %14, i32 0, i32 3
  %16 = load i64, ptr %15, align 8, !tbaa !48
  %17 = call ptr @RSTRING_PTR(i64 noundef %16)
  %18 = load ptr, ptr %3, align 8, !tbaa !60
  %19 = getelementptr inbounds nuw %struct.recvfrom_arg, ptr %18, i32 0, i32 4
  %20 = load i64, ptr %19, align 8, !tbaa !49
  %21 = load ptr, ptr %3, align 8, !tbaa !60
  %22 = getelementptr inbounds nuw %struct.recvfrom_arg, ptr %21, i32 0, i32 2
  %23 = load i32, ptr %22, align 4, !tbaa !41
  %24 = load ptr, ptr %3, align 8, !tbaa !60
  %25 = getelementptr inbounds nuw %struct.recvfrom_arg, ptr %24, i32 0, i32 6
  store ptr %25, ptr %6, align 8, !tbaa !34
  %26 = load ptr, ptr %3, align 8, !tbaa !60
  %27 = getelementptr inbounds nuw %struct.recvfrom_arg, ptr %26, i32 0, i32 5
  %28 = getelementptr inbounds nuw %union.__SOCKADDR_ARG, ptr %6, i32 0, i32 0
  %29 = load ptr, ptr %28, align 8
  %30 = call i64 @recvfrom(i32 noundef %13, ptr noundef %17, i64 noundef %20, i32 noundef %23, ptr %29, ptr noundef %27)
  store i64 %30, ptr %5, align 8, !tbaa !13
  %31 = load i64, ptr %5, align 8, !tbaa !13
  %32 = icmp ne i64 %31, -1
  br i1 %32, label %33, label %43

33:                                               ; preds = %1
  %34 = load i32, ptr %4, align 4, !tbaa !11
  %35 = load ptr, ptr %3, align 8, !tbaa !60
  %36 = getelementptr inbounds nuw %struct.recvfrom_arg, ptr %35, i32 0, i32 5
  %37 = load i32, ptr %36, align 8, !tbaa !47
  %38 = icmp ult i32 %34, %37
  br i1 %38, label %39, label %43

39:                                               ; preds = %33
  %40 = load i32, ptr %4, align 4, !tbaa !11
  %41 = load ptr, ptr %3, align 8, !tbaa !60
  %42 = getelementptr inbounds nuw %struct.recvfrom_arg, ptr %41, i32 0, i32 5
  store i32 %40, ptr %42, align 8, !tbaa !47
  br label %43

43:                                               ; preds = %39, %33, %1
  %44 = load i64, ptr %5, align 8, !tbaa !13
  call void @llvm.lifetime.end.p0(i64 8, ptr %5) #21
  call void @llvm.lifetime.end.p0(i64 4, ptr %4) #21
  call void @llvm.lifetime.end.p0(i64 8, ptr %3) #21
  ret i64 %44
}