; Function Attrs: nounwind sspstrong uwtable
define internal i64 @recvfrom_blocking(ptr noundef %0) #0 {
  %2 = getelementptr inbounds nuw i8, ptr %0, i64 32
  %3 = load i32, ptr %2, align 8, !tbaa !51
  %4 = getelementptr inbounds nuw i8, ptr %0, i64 8
  %5 = load i32, ptr %4, align 8, !tbaa !50
  %6 = getelementptr inbounds nuw i8, ptr %0, i64 16
  %7 = load i64, ptr %6, align 8, !tbaa !52
  %8 = inttoptr i64 %7 to ptr
  %9 = load i64, ptr %8, align 8, !tbaa !26, !noalias !78
  %10 = and i64 %9, 8192
  %.not.i.i = icmp eq i64 %10, 0
  %11 = getelementptr inbounds nuw i8, ptr %8, i64 24
  br i1 %.not.i.i, label %RSTRING_PTR.exit, label %12

12:                                               ; preds = %1
  %.sroa.2.0.copyload.i = load ptr, ptr %11, align 8
  br label %RSTRING_PTR.exit

RSTRING_PTR.exit:                                 ; preds = %1, %12
  %.sroa.2.0.i = phi ptr [ %.sroa.2.0.copyload.i, %12 ], [ %11, %1 ]
  %13 = getelementptr inbounds nuw i8, ptr %0, i64 24
  %14 = load i64, ptr %13, align 8, !tbaa !53
  %15 = getelementptr inbounds nuw i8, ptr %0, i64 12
  %16 = load i32, ptr %15, align 4, !tbaa !43
  %17 = getelementptr inbounds nuw i8, ptr %0, i64 40
  %18 = tail call i64 @recvfrom(i32 noundef %5, ptr noundef %.sroa.2.0.i, i64 noundef %14, i32 noundef %16, ptr nonnull %17, ptr noundef nonnull %2) #10
  %.not = icmp eq i64 %18, -1
  br i1 %.not, label %23, label %19

19:                                               ; preds = %RSTRING_PTR.exit
  %20 = load i32, ptr %2, align 8, !tbaa !51
  %21 = icmp ult i32 %3, %20
  br i1 %21, label %22, label %23

22:                                               ; preds = %19
  store i32 %3, ptr %2, align 8, !tbaa !51
  br label %23

23:                                               ; preds = %22, %19, %RSTRING_PTR.exit
  ret i64 %18
}